target datalayout = "e-m:e-p270:32:32-p271:32:32-p272:64:64-i64:64-i128:128-f80:128-n8:16:32:64-S128"
target triple = "x86_64-pc-linux-gnu"

%"class.boost::system::error_condition" = type { i32, ptr }

; Function Attrs: inlinehint mustprogress nounwind uwtable
define linkonce_odr hidden { i32, ptr } @_ZN5boost4urls7grammar20make_error_conditionENS1_9conditionE(i32 noundef %0) #4 comdat {
  %2 = alloca %"class.boost::system::error_condition", align 8
  %3 = alloca i32, align 4
  store i32 %0, ptr %3, align 4, !tbaa !16
  %4 = load i32, ptr %3, align 4, !tbaa !16
  call void @_ZN5boost6system15error_conditionC2EiRKNS0_14error_categoryE(ptr noundef nonnull align 8 dereferenceable(16) %2, i32 noundef %4, ptr noundef nonnull align 8 dereferenceable(52) @_ZN5boost4urls7grammar6detail13condition_catE) #12
  %5 = load { i32, ptr }, ptr %2, align 8
  ret { i32, ptr } %5
}

; Function Attrs: mustprogress nounwind uwtable
define linkonce_odr hidden void @_ZN5boost6system15error_conditionC2EiRKNS0_14error_categoryE(ptr noundef nonnull align 8 dereferenceable(16) %0, i32 noundef %1, ptr noundef nonnull align 8 dereferenceable(52) %2) unnamed_addr #2 comdat align 2 {
  %4 = alloca ptr, align 8
  %5 = alloca i32, align 4
  %6 = alloca ptr, align 8
  store ptr %0, ptr %4, align 8, !tbaa !3
  store i32 %1, ptr %5, align 4, !tbaa !7
  store ptr %2, ptr %6, align 8, !tbaa !3
  %7 = load ptr, ptr %4, align 8
  %8 = getelementptr inbounds nuw %"class.boost::system::error_condition", ptr %7, i32 0, i32 0
  %9 = load i32, ptr %5, align 4, !tbaa !7
  store i32 %9, ptr %8, align 8, !tbaa !9
  %10 = getelementptr inbounds nuw %"class.boost::system::error_condition", ptr %7, i32 0, i32 1
  %11 = load ptr, ptr %6, align 8, !tbaa !3
  store ptr %11, ptr %10, align 8, !tbaa !11
  ret void
}

; Function Attrs: mustprogress nounwind uwtable
define linkonce_odr hidden void @_ZN5boost6system15error_conditionC2INS_4urls7grammar9conditionEEET_PNSt9enable_ifIXaasr23is_error_condition_enumIS6_EE5valuentsr5boost6system6detail7is_sameIS6_NS0_4errc6errc_tEEE5valueEvE4typeE(ptr noundef nonnull align 8 dereferenceable(16) %0, i32 noundef %1, ptr noundef %2) unnamed_addr #2 comdat align 2 {
  %4 = alloca ptr, align 8
  %5 = alloca i32, align 4
  %6 = alloca ptr, align 8
  %7 = alloca %"class.boost::system::error_condition", align 8
  store ptr %0, ptr %4, align 8, !tbaa !3
  store i32 %1, ptr %5, align 4, !tbaa !16
  store ptr %2, ptr %6, align 8, !tbaa !3
  %8 = load ptr, ptr %4, align 8
  call void @llvm.lifetime.start.p0(i64 16, ptr %7) #12
  %9 = load i32, ptr %5, align 4, !tbaa !16
  %10 = call { i32, ptr } @_ZN5boost4urls7grammar20make_error_conditionENS1_9conditionE(i32 noundef %9) #12
  %11 = getelementptr inbounds nuw { i32, ptr }, ptr %7, i32 0, i32 0
  %12 = extractvalue { i32, ptr } %10, 0
  store i32 %12, ptr %11, align 8
  %13 = getelementptr inbounds nuw { i32, ptr }, ptr %7, i32 0, i32 1
  %14 = extractvalue { i32, ptr } %10, 1
  store ptr %14, ptr %13, align 8
  call void @llvm.memcpy.p0.p0.i64(ptr align 8 %8, ptr align 8 %7, i64 16, i1 false), !tbaa.struct !18
  call void @llvm.lifetime.end.p0(i64 16, ptr %7) #12
  ret void
}

; Function Attrs: mustprogress nounwind uwtable
define { i32, ptr } @_ZNK5boost4urls7grammar6detail14error_cat_type23default_error_conditionEi(ptr noundef nonnull align 8 dereferenceable(52) %0, i32 noundef %1) unnamed_addr #2 align 2 {
  %3 = alloca %"class.boost::system::error_condition", align 8
  %4 = alloca ptr, align 8
  %5 = alloca i32, align 4
  store ptr %0, ptr %4, align 8, !tbaa !3
  store i32 %1, ptr %5, align 4, !tbaa !7
  %6 = load ptr, ptr %4, align 8
  %7 = load i32, ptr %5, align 4, !tbaa !7
  switch i32 %7, label %9 [
    i32 5, label %8
    i32 6, label %8
  ]

8:                                                ; preds = %2, %2
  call void @_ZN5boost6system15error_conditionC2INS_4urls7grammar9conditionEEET_PNSt9enable_ifIXaasr23is_error_condition_enumIS6_EE5valuentsr5boost6system6detail7is_sameIS6_NS0_4errc6errc_tEEE5valueEvE4typeE(ptr noundef nonnull align 8 dereferenceable(16) %3, i32 noundef 1, ptr noundef null) #12
  br label %11

9:                                                ; preds = %2
  %10 = load i32, ptr %5, align 4, !tbaa !7
  call void @_ZN5boost6system15error_conditionC2EiRKNS0_14error_categoryE(ptr noundef nonnull align 8 dereferenceable(16) %3, i32 noundef %10, ptr noundef nonnull align 8 dereferenceable(52) %6) #12
  br label %11

11:                                               ; preds = %9, %8
  %12 = load { i32, ptr }, ptr %3, align 8
  ret { i32, ptr } %12
}