; Function Attrs: mustprogress nofree norecurse nosync nounwind willreturn memory(none) uwtable
define { i32, ptr } @_ZNK5boost4urls7grammar6detail14error_cat_type23default_error_conditionEi(ptr noundef nonnull align 8 dereferenceable(52) %0, i32 noundef %1) unnamed_addr #2 align 2 {
  %.off = add i32 %1, -5
  %switch = icmp ult i32 %.off, 2
  %spec.select = select i1 %switch, ptr @_ZN5boost4urls7grammar6detail13condition_catE, ptr %0
  %spec.select2 = select i1 %switch, i32 1, i32 %1
  %.fca.0.insert = insertvalue { i32, ptr } poison, i32 %spec.select2, 0
  %.fca.1.insert = insertvalue { i32, ptr } %.fca.0.insert, ptr %spec.select, 1
  ret { i32, ptr } %.fca.1.insert
}